; Function Attrs: nounwind uwtable
define void @Java_java_lang_System_setIn0(ptr noundef %0, ptr noundef %1, ptr noundef %2) local_unnamed_addr #0 {
  %4 = load ptr, ptr %0, align 8
  %5 = getelementptr inbounds i8, ptr %4, i64 1152
  %6 = load ptr, ptr %5, align 8
  %7 = tail call ptr %6(ptr noundef nonnull %0, ptr noundef %1, ptr noundef nonnull @.str.1, ptr noundef nonnull @.str.2) #2
  %8 = icmp eq ptr %7, null
  br i1 %8, label %13, label %9

9:                                                ; preds = %3
  %10 = load ptr, ptr %0, align 8
  %11 = getelementptr inbounds i8, ptr %10, i64 1232
  %12 = load ptr, ptr %11, align 8
  tail call void %12(ptr noundef nonnull %0, ptr noundef %1, ptr noundef nonnull %7, ptr noundef %2) #2
  br label %13

13:                                               ; preds = %3, %9
  ret void
}